target datalayout = "e-m:e-p270:32:32-p271:32:32-p272:64:64-i64:64-i128:128-f80:128-n8:16:32:64-S128"
target triple = "x86_64-pc-linux-gnu"

%struct.ForEachState = type { ptr, i32 }
%union.ListCell = type { ptr }
%struct.RestrictInfo = type { i32, ptr, i8, i8, i8, i8, i8, i8, i32, i32, i32, ptr, ptr, ptr, ptr, ptr, ptr, ptr, i32, ptr, %struct.QualCost, double, double, ptr, ptr, ptr, ptr, ptr, ptr, i8, i32, double, double, double, double, i32, i32 }
%struct.QualCost = type { double, double }
%struct.List = type { i32, i32, i32, ptr, [0 x %union.ListCell] }
%struct.EquivalenceClass = type { i32, ptr, i32, ptr, ptr, ptr, ptr, i8, i8, i8, i32, i32, i32, ptr }
%struct.RelOptInfo = type { i32, i32, ptr, double, i8, i8, i8, ptr, ptr, ptr, ptr, ptr, ptr, ptr, ptr, ptr, ptr, i32, i32, i32, i16, i16, ptr, ptr, ptr, ptr, ptr, ptr, ptr, ptr, i32, double, double, ptr, ptr, ptr, i32, i32, i32, i32, i8, ptr, ptr, ptr, ptr, ptr, %struct.QualCost, i32, ptr, i8, i8, ptr, ptr, ptr, ptr, i32, ptr, i8, ptr, ptr, ptr, ptr, ptr, ptr }

; Function Attrs: nounwind uwtable
define internal ptr @generate_join_implied_equalities_broken(ptr noundef %0, ptr noundef %1, ptr noundef %2, ptr noundef %3, ptr noundef %4, ptr noundef %5) #0 {
  %7 = alloca ptr, align 8
  %8 = alloca ptr, align 8
  %9 = alloca ptr, align 8
  %10 = alloca ptr, align 8
  %11 = alloca ptr, align 8
  %12 = alloca ptr, align 8
  %13 = alloca ptr, align 8
  %14 = alloca ptr, align 8
  %15 = alloca %struct.ForEachState, align 8
  %16 = alloca ptr, align 8
  %17 = alloca ptr, align 8
  store ptr %0, ptr %7, align 8
  store ptr %1, ptr %8, align 8
  store ptr %2, ptr %9, align 8
  store ptr %3, ptr %10, align 8
  store ptr %4, ptr %11, align 8
  store ptr %5, ptr %12, align 8
  call void @llvm.lifetime.start.p0(i64 8, ptr %13) #6
  store ptr null, ptr %13, align 8
  call void @llvm.lifetime.start.p0(i64 8, ptr %14) #6
  call void @llvm.lifetime.start.p0(i64 16, ptr %15) #6
  %18 = getelementptr inbounds nuw %struct.ForEachState, ptr %15, i32 0, i32 0
  %19 = load ptr, ptr %8, align 8
  %20 = getelementptr inbounds nuw %struct.EquivalenceClass, ptr %19, i32 0, i32 4
  %21 = load ptr, ptr %20, align 8
  store ptr %21, ptr %18, align 8
  %22 = getelementptr inbounds nuw %struct.ForEachState, ptr %15, i32 0, i32 1
  store i32 0, ptr %22, align 8
  %23 = getelementptr i8, ptr %15, i64 12
  call void @llvm.memset.p0.i64(ptr align 4 %23, i8 0, i64 4, i1 false)
  br label %24

24:                                               ; preds = %72, %6
  %25 = getelementptr inbounds nuw %struct.ForEachState, ptr %15, i32 0, i32 0
  %26 = load ptr, ptr %25, align 8
  %27 = icmp ne ptr %26, null
  br i1 %27, label %28, label %45

28:                                               ; preds = %24
  %29 = getelementptr inbounds nuw %struct.ForEachState, ptr %15, i32 0, i32 1
  %30 = load i32, ptr %29, align 8
  %31 = getelementptr inbounds nuw %struct.ForEachState, ptr %15, i32 0, i32 0
  %32 = load ptr, ptr %31, align 8
  %33 = getelementptr inbounds nuw %struct.List, ptr %32, i32 0, i32 1
  %34 = load i32, ptr %33, align 4
  %35 = icmp slt i32 %30, %34
  br i1 %35, label %36, label %45

36:                                               ; preds = %28
  %37 = getelementptr inbounds nuw %struct.ForEachState, ptr %15, i32 0, i32 0
  %38 = load ptr, ptr %37, align 8
  %39 = getelementptr inbounds nuw %struct.List, ptr %38, i32 0, i32 3
  %40 = load ptr, ptr %39, align 8
  %41 = getelementptr inbounds nuw %struct.ForEachState, ptr %15, i32 0, i32 1
  %42 = load i32, ptr %41, align 8
  %43 = sext i32 %42 to i64
  %44 = getelementptr inbounds %union.ListCell, ptr %40, i64 %43
  store ptr %44, ptr %14, align 8
  br label %46

45:                                               ; preds = %28, %24
  store ptr null, ptr %14, align 8
  br label %46

46:                                               ; preds = %45, %36
  %47 = phi i32 [ 1, %36 ], [ 0, %45 ]
  %48 = icmp ne i32 %47, 0
  br i1 %48, label %50, label %49

49:                                               ; preds = %46
  call void @llvm.lifetime.end.p0(i64 16, ptr %15) #6
  br label %76

50:                                               ; preds = %46
  call void @llvm.lifetime.start.p0(i64 8, ptr %16) #6
  %51 = load ptr, ptr %14, align 8
  %52 = load ptr, ptr %51, align 8
  store ptr %52, ptr %16, align 8
  call void @llvm.lifetime.start.p0(i64 8, ptr %17) #6
  %53 = load ptr, ptr %16, align 8
  %54 = getelementptr inbounds nuw %struct.RestrictInfo, ptr %53, i32 0, i32 12
  %55 = load ptr, ptr %54, align 8
  store ptr %55, ptr %17, align 8
  %56 = load ptr, ptr %17, align 8
  %57 = load ptr, ptr %9, align 8
  %58 = call zeroext i1 @bms_is_subset(ptr noundef %56, ptr noundef %57)
  br i1 %58, label %59, label %71

59:                                               ; preds = %50
  %60 = load ptr, ptr %17, align 8
  %61 = load ptr, ptr %10, align 8
  %62 = call zeroext i1 @bms_is_subset(ptr noundef %60, ptr noundef %61)
  br i1 %62, label %71, label %63

63:                                               ; preds = %59
  %64 = load ptr, ptr %17, align 8
  %65 = load ptr, ptr %11, align 8
  %66 = call zeroext i1 @bms_is_subset(ptr noundef %64, ptr noundef %65)
  br i1 %66, label %71, label %67

67:                                               ; preds = %63
  %68 = load ptr, ptr %13, align 8
  %69 = load ptr, ptr %16, align 8
  %70 = call ptr @lappend(ptr noundef %68, ptr noundef %69)
  store ptr %70, ptr %13, align 8
  br label %71

71:                                               ; preds = %67, %63, %59, %50
  call void @llvm.lifetime.end.p0(i64 8, ptr %17) #6
  call void @llvm.lifetime.end.p0(i64 8, ptr %16) #6
  br label %72

72:                                               ; preds = %71
  %73 = getelementptr inbounds nuw %struct.ForEachState, ptr %15, i32 0, i32 1
  %74 = load i32, ptr %73, align 8
  %75 = add i32 %74, 1
  store i32 %75, ptr %73, align 8
  br label %24, !llvm.loop !31

76:                                               ; preds = %49
  %77 = load ptr, ptr %12, align 8
  %78 = getelementptr inbounds nuw %struct.RelOptInfo, ptr %77, i32 0, i32 1
  %79 = load i32, ptr %78, align 4
  %80 = icmp eq i32 %79, 2
  br i1 %80, label %91, label %81

81:                                               ; preds = %76
  %82 = load ptr, ptr %12, align 8
  %83 = getelementptr inbounds nuw %struct.RelOptInfo, ptr %82, i32 0, i32 1
  %84 = load i32, ptr %83, align 4
  %85 = icmp eq i32 %84, 3
  br i1 %85, label %91, label %86

86:                                               ; preds = %81
  %87 = load ptr, ptr %12, align 8
  %88 = getelementptr inbounds nuw %struct.RelOptInfo, ptr %87, i32 0, i32 1
  %89 = load i32, ptr %88, align 4
  %90 = icmp eq i32 %89, 5
  br i1 %90, label %91, label %102

91:                                               ; preds = %86, %81, %76
  %92 = load ptr, ptr %13, align 8
  %93 = icmp ne ptr %92, null
  br i1 %93, label %94, label %102

94:                                               ; preds = %91
  %95 = load ptr, ptr %7, align 8
  %96 = load ptr, ptr %13, align 8
  %97 = load ptr, ptr %12, align 8
  %98 = load ptr, ptr %12, align 8
  %99 = getelementptr inbounds nuw %struct.RelOptInfo, ptr %98, i32 0, i32 52
  %100 = load ptr, ptr %99, align 8
  %101 = call ptr @adjust_appendrel_attrs_multilevel(ptr noundef %95, ptr noundef %96, ptr noundef %97, ptr noundef %100)
  store ptr %101, ptr %13, align 8
  br label %102

102:                                              ; preds = %94, %91, %86
  %103 = load ptr, ptr %13, align 8
  call void @llvm.lifetime.end.p0(i64 8, ptr %14) #6
  call void @llvm.lifetime.end.p0(i64 8, ptr %13) #6
  ret ptr %103
}