; Function Attrs: nounwind uwtable
define internal fastcc ptr @generate_join_implied_equalities_broken(ptr noundef %0, ptr readonly captures(address_is_null) %.32.val, ptr noundef %1, ptr noundef %2, ptr noundef %3, ptr noundef %4) unnamed_addr #0 {
  %6 = getelementptr inbounds nuw i8, ptr %.32.val, i64 4
  %.not = icmp eq ptr %.32.val, null
  br i1 %.not, label %._crit_edge, label %.lr.ph

.lr.ph:                                           ; preds = %5
  %7 = getelementptr inbounds nuw i8, ptr %.32.val, i64 16
  %8 = load i32, ptr %6, align 4
  %9 = icmp sgt i32 %8, 0
  br i1 %9, label %.lr.ph10, label %._crit_edge

._crit_edge:                                      ; preds = %25, %.lr.ph, %5
  %.0.lcssa = phi ptr [ null, %5 ], [ null, %.lr.ph ], [ %.1, %25 ]
  %10 = getelementptr inbounds nuw i8, ptr %4, i64 4
  %11 = load i32, ptr %10, align 4
  %12 = and i32 %11, -2
  %switch = icmp eq i32 %12, 2
  br i1 %switch, label %32, label %29

.lr.ph10:                                         ; preds = %.lr.ph, %25
  %indvars.iv = phi i64 [ %indvars.iv.next, %25 ], [ 0, %.lr.ph ]
  %.048 = phi ptr [ %.1, %25 ], [ null, %.lr.ph ]
  %13 = load ptr, ptr %7, align 8
  %14 = getelementptr inbounds nuw %union.ListCell, ptr %13, i64 %indvars.iv
  %15 = load ptr, ptr %14, align 8
  %16 = getelementptr inbounds nuw i8, ptr %15, i64 48
  %17 = load ptr, ptr %16, align 8
  %18 = tail call zeroext i1 @bms_is_subset(ptr noundef %17, ptr noundef %1) #8
  br i1 %18, label %19, label %25

19:                                               ; preds = %.lr.ph10
  %20 = tail call zeroext i1 @bms_is_subset(ptr noundef %17, ptr noundef %2) #8
  br i1 %20, label %25, label %21

21:                                               ; preds = %19
  %22 = tail call zeroext i1 @bms_is_subset(ptr noundef %17, ptr noundef %3) #8
  br i1 %22, label %25, label %23

23:                                               ; preds = %21
  %24 = tail call ptr @lappend(ptr noundef %.048, ptr noundef nonnull %15) #8
  br label %25

25:                                               ; preds = %23, %21, %19, %.lr.ph10
  %.1 = phi ptr [ %.048, %19 ], [ %.048, %21 ], [ %24, %23 ], [ %.048, %.lr.ph10 ]
  %indvars.iv.next = add nuw nsw i64 %indvars.iv, 1
  %26 = load i32, ptr %6, align 4
  %27 = sext i32 %26 to i64
  %28 = icmp slt i64 %indvars.iv.next, %27
  br i1 %28, label %.lr.ph10, label %._crit_edge

29:                                               ; preds = %._crit_edge
  %30 = icmp eq i32 %11, 5
  %31 = icmp ne ptr %.0.lcssa, null
  %or.cond = select i1 %30, i1 %31, i1 false
  br i1 %or.cond, label %33, label %37

32:                                               ; preds = %._crit_edge
  %.old1.not = icmp eq ptr %.0.lcssa, null
  br i1 %.old1.not, label %37, label %33

33:                                               ; preds = %29, %32
  %34 = getelementptr inbounds nuw i8, ptr %4, i64 352
  %35 = load ptr, ptr %34, align 8
  %36 = tail call ptr @adjust_appendrel_attrs_multilevel(ptr noundef %0, ptr noundef nonnull %.0.lcssa, ptr noundef nonnull %4, ptr noundef %35) #8
  br label %37

37:                                               ; preds = %33, %32, %29
  %.2 = phi ptr [ %36, %33 ], [ null, %32 ], [ %.0.lcssa, %29 ]
  ret ptr %.2
}